; Function Attrs: mustprogress uwtable
define hidden void @_ZN1q19quantifier_stat_gen5resetEv(ptr noundef nonnull align 8 dereferenceable(52) %this) local_unnamed_addr #4 align 2 {
entry:
  %m_already_found = getelementptr inbounds i8, ptr %this, i64 16
  %m_size.i.i = getelementptr inbounds i8, ptr %this, i64 28
  %0 = load i32, ptr %m_size.i.i, align 4
  %cmp.i.i = icmp eq i32 %0, 0
  %m_num_deleted.i.i = getelementptr inbounds i8, ptr %this, i64 32
  %1 = load i32, ptr %m_num_deleted.i.i, align 8
  %cmp2.i.i = icmp eq i32 %1, 0
  %or.cond.i.i = select i1 %cmp.i.i, i1 %cmp2.i.i, i1 false
  br i1 %or.cond.i.i, label %_ZN7obj_mapI4exprjE5resetEv.exit, label %if.end.i.i

if.end.i.i:                                       ; preds = %entry
  %2 = load ptr, ptr %m_already_found, align 8
  %m_capacity.i.i = getelementptr inbounds i8, ptr %this, i64 24
  %3 = load i32, ptr %m_capacity.i.i, align 8
  %idx.ext.i.i = zext i32 %3 to i64
  %add.ptr.i.i = getelementptr inbounds %"class.obj_map<expr, unsigned int>::obj_map_entry", ptr %2, i64 %idx.ext.i.i
  %cmp4.not5.i.i = icmp eq i32 %3, 0
  br i1 %cmp4.not5.i.i, label %if.end18.i.i, label %for.body.i.i

for.body.i.i:                                     ; preds = %if.end.i.i, %for.inc.i.i
  %overhead.07.i.i = phi i32 [ %overhead.1.i.i, %for.inc.i.i ], [ 0, %if.end.i.i ]
  %curr.06.i.i = phi ptr [ %incdec.ptr.i.i, %for.inc.i.i ], [ %2, %if.end.i.i ]
  %4 = load ptr, ptr %curr.06.i.i, align 8
  %cmp.i.i.i = icmp eq ptr %4, null
  br i1 %cmp.i.i.i, label %if.else.i.i, label %if.then5.i.i

if.then5.i.i:                                     ; preds = %for.body.i.i
  store ptr null, ptr %curr.06.i.i, align 8
  br label %for.inc.i.i

if.else.i.i:                                      ; preds = %for.body.i.i
  %inc.i.i = add i32 %overhead.07.i.i, 1
  br label %for.inc.i.i

for.inc.i.i:                                      ; preds = %if.else.i.i, %if.then5.i.i
  %overhead.1.i.i = phi i32 [ %inc.i.i, %if.else.i.i ], [ %overhead.07.i.i, %if.then5.i.i ]
  %incdec.ptr.i.i = getelementptr inbounds i8, ptr %curr.06.i.i, i64 16
  %cmp4.not.i.i = icmp eq ptr %incdec.ptr.i.i, %add.ptr.i.i
  br i1 %cmp4.not.i.i, label %for.end.i.i, label %for.body.i.i, !llvm.loop !4

for.end.i.i:                                      ; preds = %for.inc.i.i
  %.pre.i.i = load i32, ptr %m_capacity.i.i, align 8
  %5 = shl i32 %overhead.1.i.i, 2
  %cmp8.i.i = icmp ugt i32 %.pre.i.i, 16
  %mul.i.i = mul i32 %.pre.i.i, 3
  %cmp11.i.i = icmp ugt i32 %5, %mul.i.i
  %or.cond11.i.i = select i1 %cmp8.i.i, i1 %cmp11.i.i, i1 false
  br i1 %or.cond11.i.i, label %if.then12.i.i, label %if.end18.i.i

if.then12.i.i:                                    ; preds = %for.end.i.i
  %6 = load ptr, ptr %m_already_found, align 8
  %cmp.i.i.i.i = icmp eq ptr %6, null
  br i1 %cmp.i.i.i.i, label %_ZN14core_hashtableIN7obj_mapI4exprjE13obj_map_entryE8obj_hashINS2_8key_dataEE10default_eqIS5_EE12delete_tableEv.exit.i.i, label %for.cond.preheader.i.i.i.i

for.cond.preheader.i.i.i.i:                       ; preds = %if.then12.i.i
  tail call void @_ZN6memory10deallocateEPv(ptr noundef nonnull %6)
  %.pre8.i.i = load i32, ptr %m_capacity.i.i, align 8
  br label %_ZN14core_hashtableIN7obj_mapI4exprjE13obj_map_entryE8obj_hashINS2_8key_dataEE10default_eqIS5_EE12delete_tableEv.exit.i.i

_ZN14core_hashtableIN7obj_mapI4exprjE13obj_map_entryE8obj_hashINS2_8key_dataEE10default_eqIS5_EE12delete_tableEv.exit.i.i: ; preds = %for.cond.preheader.i.i.i.i, %if.then12.i.i
  %7 = phi i32 [ %.pre.i.i, %if.then12.i.i ], [ %.pre8.i.i, %for.cond.preheader.i.i.i.i ]
  store ptr null, ptr %m_already_found, align 8
  %shr.i.i = lshr i32 %7, 1
  store i32 %shr.i.i, ptr %m_capacity.i.i, align 8
  %conv.i.i.i.i = zext nneg i32 %shr.i.i to i64
  %mul.i.i.i.i = shl nuw nsw i64 %conv.i.i.i.i, 4
  %call.i.i.i.i = tail call noalias noundef ptr @_ZN6memory8allocateEm(i64 noundef %mul.i.i.i.i)
  %cmp5.not.i.i.i.i = icmp ult i32 %7, 2
  br i1 %cmp5.not.i.i.i.i, label %_ZN14core_hashtableIN7obj_mapI4exprjE13obj_map_entryE8obj_hashINS2_8key_dataEE10default_eqIS5_EE11alloc_tableEj.exit.i.i, label %for.body.i.preheader.i.i.i

for.body.i.preheader.i.i.i:                       ; preds = %_ZN14core_hashtableIN7obj_mapI4exprjE13obj_map_entryE8obj_hashINS2_8key_dataEE10default_eqIS5_EE12delete_tableEv.exit.i.i
  tail call void @llvm.memset.p0.i64(ptr align 8 %call.i.i.i.i, i8 0, i64 %mul.i.i.i.i, i1 false)
  br label %_ZN14core_hashtableIN7obj_mapI4exprjE13obj_map_entryE8obj_hashINS2_8key_dataEE10default_eqIS5_EE11alloc_tableEj.exit.i.i

_ZN14core_hashtableIN7obj_mapI4exprjE13obj_map_entryE8obj_hashINS2_8key_dataEE10default_eqIS5_EE11alloc_tableEj.exit.i.i: ; preds = %for.body.i.preheader.i.i.i, %_ZN14core_hashtableIN7obj_mapI4exprjE13obj_map_entryE8obj_hashINS2_8key_dataEE10default_eqIS5_EE12delete_tableEv.exit.i.i
  store ptr %call.i.i.i.i, ptr %m_already_found, align 8
  br label %if.end18.i.i

if.end18.i.i:                                     ; preds = %_ZN14core_hashtableIN7obj_mapI4exprjE13obj_map_entryE8obj_hashINS2_8key_dataEE10default_eqIS5_EE11alloc_tableEj.exit.i.i, %for.end.i.i, %if.end.i.i
  store i32 0, ptr %m_size.i.i, align 4
  store i32 0, ptr %m_num_deleted.i.i, align 8
  br label %_ZN7obj_mapI4exprjE5resetEv.exit

_ZN7obj_mapI4exprjE5resetEv.exit:                 ; preds = %entry, %if.end18.i.i
  %m_todo = getelementptr inbounds i8, ptr %this, i64 40
  %8 = load ptr, ptr %m_todo, align 8
  %tobool.not.i = icmp eq ptr %8, null
  br i1 %tobool.not.i, label %_ZN6vectorIN1q19quantifier_stat_gen5entryELb0EjE5resetEv.exit, label %if.then.i

if.then.i:                                        ; preds = %_ZN7obj_mapI4exprjE5resetEv.exit
  %arrayidx.i = getelementptr inbounds i8, ptr %8, i64 -4
  store i32 0, ptr %arrayidx.i, align 4
  br label %_ZN6vectorIN1q19quantifier_stat_gen5entryELb0EjE5resetEv.exit

_ZN6vectorIN1q19quantifier_stat_gen5entryELb0EjE5resetEv.exit: ; preds = %_ZN7obj_mapI4exprjE5resetEv.exit, %if.then.i
  %m_case_split_factor = getelementptr inbounds i8, ptr %this, i64 48
  %call = tail call noundef nonnull align 4 dereferenceable(4) ptr @_ZN10approx_nataSEj(ptr noundef nonnull align 4 dereferenceable(4) %m_case_split_factor, i32 noundef 1)
  ret void
}